target datalayout = "e-m:e-p270:32:32-p271:32:32-p272:64:64-i64:64-i128:128-f80:128-n8:16:32:64-S128"
target triple = "x86_64-pc-linux-gnu"

%struct.epan_column_info = type { ptr, i32, ptr, ptr, ptr, %struct.col_expr_t, i32, ptr }
%struct.col_expr_t = type { ptr, ptr }
%struct.col_item_t = type { i32, ptr, ptr, ptr, i32, ptr, ptr, ptr, ptr, i32, i32, i32 }
%struct.nstime_t = type { i64, i32 }
%struct._frame_data = type { i32, i32, i32, i32, i64, ptr, ptr, ptr, i16, i16, %struct.nstime_t, %struct.nstime_t, i32, i32, i8 }

@col_decimal_point = internal global ptr null, align 8
@.str.1 = private unnamed_addr constant [1 x i8] zeroinitializer, align 1
@.str.7 = private unnamed_addr constant [20 x i8] c"epan/column-utils.c\00", align 1
@.str.9 = private unnamed_addr constant [31 x i8] c"assertion \22not reached\22 failed\00", align 1
@__func__.get_frame_timestamp_precision = private unnamed_addr constant [30 x i8] c"get_frame_timestamp_precision\00", align 1
@.str.30 = private unnamed_addr constant [17 x i8] c"frame.time_delta\00", align 1
@__func__.col_set_delta_time = private unnamed_addr constant [19 x i8] c"col_set_delta_time\00", align 1

; Function Attrs: nounwind uwtable
define internal i32 @get_frame_timestamp_precision(ptr noundef %0) #0 {
  %2 = alloca ptr, align 8
  %3 = alloca i32, align 4
  store ptr %0, ptr %2, align 8
  %4 = call i32 @timestamp_get_precision()
  store i32 %4, ptr %3, align 4
  %5 = load i32, ptr %3, align 4
  %6 = icmp eq i32 %5, -1
  br i1 %6, label %7, label %14

7:                                                ; preds = %1
  %8 = load ptr, ptr %2, align 8
  %9 = getelementptr inbounds %struct._frame_data, ptr %8, i32 0, i32 9
  %10 = load i16, ptr %9, align 2
  %11 = lshr i16 %10, 10
  %12 = and i16 %11, 15
  %13 = zext i16 %12 to i32
  store i32 %13, ptr %3, align 4
  br label %19

14:                                               ; preds = %1
  %15 = load i32, ptr %3, align 4
  %16 = icmp slt i32 %15, 0
  br i1 %16, label %17, label %18

17:                                               ; preds = %14
  call void (ptr, i32, ptr, i64, ptr, ptr, ...) @ws_log_fatal_full(ptr noundef @.str.1, i32 noundef 7, ptr noundef @.str.7, i64 noundef 984, ptr noundef @__func__.get_frame_timestamp_precision, ptr noundef @.str.9) #10
  unreachable

18:                                               ; preds = %14
  br label %19

19:                                               ; preds = %18, %7
  %20 = load i32, ptr %3, align 4
  %21 = icmp sgt i32 %20, 9
  br i1 %21, label %22, label %23

22:                                               ; preds = %19
  store i32 9, ptr %3, align 4
  br label %23

23:                                               ; preds = %22, %19
  %24 = load i32, ptr %3, align 4
  ret i32 %24
}

; Function Attrs: nounwind uwtable
define internal void @set_time_seconds(ptr noundef %0, ptr noundef %1, ptr noundef %2) #0 {
  %4 = alloca ptr, align 8
  %5 = alloca ptr, align 8
  %6 = alloca ptr, align 8
  store ptr %0, ptr %4, align 8
  store ptr %1, ptr %5, align 8
  store ptr %2, ptr %6, align 8
  br label %7

7:                                                ; preds = %3
  br label %8

8:                                                ; preds = %7
  %9 = load ptr, ptr %6, align 8
  %10 = load ptr, ptr %5, align 8
  %11 = load ptr, ptr %4, align 8
  %12 = call i32 @get_frame_timestamp_precision(ptr noundef %11)
  call void @display_signed_time(ptr noundef %9, i64 noundef 2048, ptr noundef %10, i32 noundef %12)
  ret void
}

; Function Attrs: nounwind uwtable
define internal void @col_set_delta_time(ptr noundef %0, ptr noundef %1, i32 noundef %2) #0 {
  %4 = alloca ptr, align 8
  %5 = alloca ptr, align 8
  %6 = alloca i32, align 4
  %7 = alloca %struct.nstime_t, align 8
  store ptr %0, ptr %4, align 8
  store ptr %1, ptr %5, align 8
  store i32 %2, ptr %6, align 4
  %8 = load ptr, ptr %4, align 8
  %9 = getelementptr inbounds %struct._frame_data, ptr %8, i32 0, i32 9
  %10 = load i16, ptr %9, align 2
  %11 = lshr i16 %10, 7
  %12 = and i16 %11, 1
  %13 = zext i16 %12 to i32
  %14 = icmp ne i32 %13, 0
  br i1 %14, label %25, label %15

15:                                               ; preds = %3
  %16 = load ptr, ptr %5, align 8
  %17 = getelementptr inbounds %struct.epan_column_info, ptr %16, i32 0, i32 2
  %18 = load ptr, ptr %17, align 8
  %19 = load i32, ptr %6, align 4
  %20 = sext i32 %19 to i64
  %21 = getelementptr %struct.col_item_t, ptr %18, i64 %20
  %22 = getelementptr inbounds %struct.col_item_t, ptr %21, i32 0, i32 8
  %23 = load ptr, ptr %22, align 8
  %24 = getelementptr i8, ptr %23, i64 0
  store i8 0, ptr %24, align 1
  br label %113

25:                                               ; preds = %3
  %26 = load ptr, ptr %5, align 8
  %27 = getelementptr inbounds %struct.epan_column_info, ptr %26, i32 0, i32 0
  %28 = load ptr, ptr %27, align 8
  %29 = load ptr, ptr %4, align 8
  %30 = load ptr, ptr %4, align 8
  %31 = getelementptr inbounds %struct._frame_data, ptr %30, i32 0, i32 0
  %32 = load i32, ptr %31, align 8
  %33 = sub i32 %32, 1
  call void @frame_delta_abs_time(ptr noundef %28, ptr noundef %29, i32 noundef %33, ptr noundef %7)
  %34 = call i32 @timestamp_get_seconds_type()
  switch i32 %34, label %96 [
    i32 0, label %35
    i32 1, label %69
  ]

35:                                               ; preds = %25
  %36 = load ptr, ptr %4, align 8
  %37 = load ptr, ptr %5, align 8
  %38 = getelementptr inbounds %struct.epan_column_info, ptr %37, i32 0, i32 2
  %39 = load ptr, ptr %38, align 8
  %40 = load i32, ptr %6, align 4
  %41 = sext i32 %40 to i64
  %42 = getelementptr %struct.col_item_t, ptr %39, i64 %41
  %43 = getelementptr inbounds %struct.col_item_t, ptr %42, i32 0, i32 8
  %44 = load ptr, ptr %43, align 8
  call void @set_time_seconds(ptr noundef %36, ptr noundef %7, ptr noundef %44)
  %45 = load ptr, ptr %5, align 8
  %46 = getelementptr inbounds %struct.epan_column_info, ptr %45, i32 0, i32 5
  %47 = getelementptr inbounds %struct.col_expr_t, ptr %46, i32 0, i32 0
  %48 = load ptr, ptr %47, align 8
  %49 = load i32, ptr %6, align 4
  %50 = sext i32 %49 to i64
  %51 = getelementptr ptr, ptr %48, i64 %50
  store ptr @.str.30, ptr %51, align 8
  %52 = load ptr, ptr %5, align 8
  %53 = getelementptr inbounds %struct.epan_column_info, ptr %52, i32 0, i32 5
  %54 = getelementptr inbounds %struct.col_expr_t, ptr %53, i32 0, i32 1
  %55 = load ptr, ptr %54, align 8
  %56 = load i32, ptr %6, align 4
  %57 = sext i32 %56 to i64
  %58 = getelementptr ptr, ptr %55, i64 %57
  %59 = load ptr, ptr %58, align 8
  %60 = load ptr, ptr %5, align 8
  %61 = getelementptr inbounds %struct.epan_column_info, ptr %60, i32 0, i32 2
  %62 = load ptr, ptr %61, align 8
  %63 = load i32, ptr %6, align 4
  %64 = sext i32 %63 to i64
  %65 = getelementptr %struct.col_item_t, ptr %62, i64 %64
  %66 = getelementptr inbounds %struct.col_item_t, ptr %65, i32 0, i32 8
  %67 = load ptr, ptr %66, align 8
  %68 = call i64 @g_strlcpy(ptr noundef %59, ptr noundef %67, i64 noundef 2048)
  br label %97

69:                                               ; preds = %25
  %70 = load ptr, ptr %4, align 8
  %71 = load ptr, ptr %5, align 8
  %72 = getelementptr inbounds %struct.epan_column_info, ptr %71, i32 0, i32 2
  %73 = load ptr, ptr %72, align 8
  %74 = load i32, ptr %6, align 4
  %75 = sext i32 %74 to i64
  %76 = getelementptr %struct.col_item_t, ptr %73, i64 %75
  %77 = getelementptr inbounds %struct.col_item_t, ptr %76, i32 0, i32 8
  %78 = load ptr, ptr %77, align 8
  %79 = load ptr, ptr @col_decimal_point, align 8
  call void @set_time_hour_min_sec(ptr noundef %70, ptr noundef %7, ptr noundef %78, ptr noundef %79)
  %80 = load ptr, ptr %5, align 8
  %81 = getelementptr inbounds %struct.epan_column_info, ptr %80, i32 0, i32 5
  %82 = getelementptr inbounds %struct.col_expr_t, ptr %81, i32 0, i32 0
  %83 = load ptr, ptr %82, align 8
  %84 = load i32, ptr %6, align 4
  %85 = sext i32 %84 to i64
  %86 = getelementptr ptr, ptr %83, i64 %85
  store ptr @.str.30, ptr %86, align 8
  %87 = load ptr, ptr %4, align 8
  %88 = load ptr, ptr %5, align 8
  %89 = getelementptr inbounds %struct.epan_column_info, ptr %88, i32 0, i32 5
  %90 = getelementptr inbounds %struct.col_expr_t, ptr %89, i32 0, i32 1
  %91 = load ptr, ptr %90, align 8
  %92 = load i32, ptr %6, align 4
  %93 = sext i32 %92 to i64
  %94 = getelementptr ptr, ptr %91, i64 %93
  %95 = load ptr, ptr %94, align 8
  call void @set_time_seconds(ptr noundef %87, ptr noundef %7, ptr noundef %95)
  br label %97

96:                                               ; preds = %25
  call void (ptr, i32, ptr, i64, ptr, ptr, ...) @ws_log_fatal_full(ptr noundef @.str.1, i32 noundef 7, ptr noundef @.str.7, i64 noundef 1290, ptr noundef @__func__.col_set_delta_time, ptr noundef @.str.9) #10
  unreachable

97:                                               ; preds = %69, %35
  %98 = load ptr, ptr %5, align 8
  %99 = getelementptr inbounds %struct.epan_column_info, ptr %98, i32 0, i32 2
  %100 = load ptr, ptr %99, align 8
  %101 = load i32, ptr %6, align 4
  %102 = sext i32 %101 to i64
  %103 = getelementptr %struct.col_item_t, ptr %100, i64 %102
  %104 = getelementptr inbounds %struct.col_item_t, ptr %103, i32 0, i32 8
  %105 = load ptr, ptr %104, align 8
  %106 = load ptr, ptr %5, align 8
  %107 = getelementptr inbounds %struct.epan_column_info, ptr %106, i32 0, i32 2
  %108 = load ptr, ptr %107, align 8
  %109 = load i32, ptr %6, align 4
  %110 = sext i32 %109 to i64
  %111 = getelementptr %struct.col_item_t, ptr %108, i64 %110
  %112 = getelementptr inbounds %struct.col_item_t, ptr %111, i32 0, i32 7
  store ptr %105, ptr %112, align 8
  br label %113

113:                                              ; preds = %97, %15
  ret void
}